target datalayout = "e-m:e-p270:32:32-p271:32:32-p272:64:64-i64:64-i128:128-f80:128-n8:16:32:64-S128"
target triple = "x86_64-pc-linux-gnu"

%struct.slurm_conf_t = type { i64, ptr, i16, ptr, ptr, ptr, ptr, ptr, i16, ptr, ptr, ptr, ptr, ptr, ptr, ptr, i16, ptr, ptr, ptr, ptr, i16, ptr, ptr, ptr, i64, ptr, ptr, ptr, ptr, i16, ptr, ptr, i16, i32, ptr, i32, ptr, i32, i32, ptr, ptr, i64, i64, ptr, i16, i16, ptr, i32, i32, ptr, i32, ptr, i32, i16, i16, i16, ptr, i16, i16, ptr, ptr, i32, i16, i16, ptr, i32, i16, ptr, ptr, ptr, ptr, i16, ptr, ptr, ptr, ptr, i32, ptr, ptr, ptr, ptr, i16, i16, ptr, i32, i32, i32, i16, i16, ptr, ptr, i16, ptr, ptr, i32, i32, i32, i32, i32, i64, i32, i32, i16, ptr, ptr, i32, ptr, ptr, ptr, i16, i32, ptr, ptr, i16, ptr, ptr, i32, i16, ptr, ptr, ptr, ptr, i32, i32, i16, i16, i32, ptr, i16, ptr, i32, i32, i32, i32, i32, i32, ptr, i16, ptr, ptr, i32, i16, ptr, i32, i16, i16, ptr, ptr, ptr, i16, ptr, ptr, ptr, ptr, i16, i16, ptr, i16, ptr, i16, ptr, i16, ptr, i16, ptr, ptr, ptr, ptr, i16, ptr, ptr, ptr, i32, ptr, i32, ptr, ptr, i16, ptr, ptr, i32, i16, ptr, ptr, i16, i16, ptr, i16, ptr, ptr, ptr, i32, ptr, i16, i16, ptr, ptr, ptr, ptr, ptr, ptr, ptr, ptr, i16, i32, i16, ptr, ptr, ptr, ptr, i32, ptr, ptr, ptr, i16, ptr, ptr, ptr, i16, ptr, i16, ptr, i16, i16, ptr }
%struct.node_record = type { ptr, ptr, i16, i64, i64, ptr, ptr, ptr, i16, ptr, i16, i16, i32, i32, i64, ptr, i16, i16, ptr, ptr, ptr, ptr, ptr, i64, i64, ptr, ptr, ptr, ptr, i32, ptr, ptr, i64, i64, i32, ptr, i64, ptr, i32, i16, ptr, ptr, i32, ptr, i32, i8, ptr, i32, i16, i16, ptr, i16, i64, i16, i64, ptr, i64, i32, i16, i64, i16, ptr, i16, i64, ptr, i64, i16, i32, i16, ptr, ptr, ptr, i16, i32, i16, i16, i32, ptr, i16, i32 }
%struct.config_record_t = type { i16, i16, i16, i32, ptr, i16, ptr, ptr, i32, i64, ptr, ptr, i64, i16, i16, i32, i16, ptr, ptr, i32 }

@slurm_conf = external global %struct.slurm_conf_t, align 8
@.str.29 = private unnamed_addr constant [17 x i8] c"application/json\00", align 1
@.str.30 = private unnamed_addr constant [40 x i8] c"Failed to decode extra \22%s\22 for node %s\00", align 1
@.str.49 = private unnamed_addr constant [42 x i8] c"Node %s Weight(%u) differ from slurm.conf\00", align 1
@.str.50 = private unnamed_addr constant [44 x i8] c"Node %s Features(%s) differ from slurm.conf\00", align 1

; Function Attrs: nounwind uwtable
define dso_local void @restore_node_features(i32 noundef %0) #0 {
  %2 = alloca i32, align 4
  %3 = alloca i32, align 4
  %4 = alloca i32, align 4
  %5 = alloca ptr, align 8
  %6 = alloca ptr, align 8
  store i32 %0, ptr %2, align 4
  call void @llvm.lifetime.start.p0(i64 4, ptr %3) #10
  call void @llvm.lifetime.start.p0(i64 4, ptr %4) #10
  call void @llvm.lifetime.start.p0(i64 8, ptr %5) #10
  %7 = call i32 @node_features_g_count()
  store i32 %7, ptr %4, align 4
  store i32 0, ptr %3, align 4
  br label %8

8:                                                ; preds = %161, %1
  %9 = call ptr @next_node(ptr noundef %3)
  store ptr %9, ptr %5, align 8
  %10 = icmp ne ptr %9, null
  br i1 %10, label %11, label %164

11:                                               ; preds = %8
  %12 = load ptr, ptr %5, align 8
  %13 = getelementptr inbounds nuw %struct.node_record, ptr %12, i32 0, i32 79
  %14 = load i32, ptr %13, align 4
  %15 = load ptr, ptr %5, align 8
  %16 = getelementptr inbounds nuw %struct.node_record, ptr %15, i32 0, i32 9
  %17 = load ptr, ptr %16, align 8
  %18 = getelementptr inbounds nuw %struct.config_record_t, ptr %17, i32 0, i32 19
  %19 = load i32, ptr %18, align 8
  %20 = icmp ne i32 %14, %19
  br i1 %20, label %21, label %48

21:                                               ; preds = %11
  %22 = load ptr, ptr %5, align 8
  %23 = getelementptr inbounds nuw %struct.node_record, ptr %22, i32 0, i32 37
  %24 = load ptr, ptr %23, align 8
  %25 = load ptr, ptr %5, align 8
  %26 = getelementptr inbounds nuw %struct.node_record, ptr %25, i32 0, i32 79
  %27 = load i32, ptr %26, align 4
  %28 = call i32 (ptr, ...) @error(ptr noundef @.str.49, ptr noundef %24, i32 noundef %27)
  %29 = load i32, ptr %2, align 4
  %30 = icmp eq i32 %29, 2
  br i1 %30, label %31, label %39

31:                                               ; preds = %21
  %32 = load ptr, ptr %5, align 8
  %33 = getelementptr inbounds nuw %struct.node_record, ptr %32, i32 0, i32 37
  %34 = load ptr, ptr %33, align 8
  %35 = load ptr, ptr %5, align 8
  %36 = getelementptr inbounds nuw %struct.node_record, ptr %35, i32 0, i32 79
  %37 = load i32, ptr %36, align 4
  %38 = call i32 @_update_node_weight(ptr noundef %34, i32 noundef %37)
  br label %47

39:                                               ; preds = %21
  %40 = load ptr, ptr %5, align 8
  %41 = getelementptr inbounds nuw %struct.node_record, ptr %40, i32 0, i32 9
  %42 = load ptr, ptr %41, align 8
  %43 = getelementptr inbounds nuw %struct.config_record_t, ptr %42, i32 0, i32 19
  %44 = load i32, ptr %43, align 8
  %45 = load ptr, ptr %5, align 8
  %46 = getelementptr inbounds nuw %struct.node_record, ptr %45, i32 0, i32 79
  store i32 %44, ptr %46, align 4
  br label %47

47:                                               ; preds = %39, %31
  br label %48

48:                                               ; preds = %47, %11
  %49 = load ptr, ptr %5, align 8
  %50 = getelementptr inbounds nuw %struct.node_record, ptr %49, i32 0, i32 9
  %51 = load ptr, ptr %50, align 8
  %52 = getelementptr inbounds nuw %struct.config_record_t, ptr %51, i32 0, i32 6
  %53 = load ptr, ptr %52, align 8
  %54 = load ptr, ptr %5, align 8
  %55 = getelementptr inbounds nuw %struct.node_record, ptr %54, i32 0, i32 21
  %56 = load ptr, ptr %55, align 8
  %57 = call i32 @xstrcmp(ptr noundef %53, ptr noundef %56)
  %58 = icmp ne i32 %57, 0
  br i1 %58, label %59, label %82

59:                                               ; preds = %48
  %60 = load i32, ptr %4, align 4
  %61 = icmp eq i32 %60, 0
  br i1 %61, label %62, label %70

62:                                               ; preds = %59
  %63 = load ptr, ptr %5, align 8
  %64 = getelementptr inbounds nuw %struct.node_record, ptr %63, i32 0, i32 37
  %65 = load ptr, ptr %64, align 8
  %66 = load ptr, ptr %5, align 8
  %67 = getelementptr inbounds nuw %struct.node_record, ptr %66, i32 0, i32 21
  %68 = load ptr, ptr %67, align 8
  %69 = call i32 (ptr, ...) @error(ptr noundef @.str.50, ptr noundef %65, ptr noundef %68)
  br label %70

70:                                               ; preds = %62, %59
  %71 = load i32, ptr %2, align 4
  %72 = icmp eq i32 %71, 2
  br i1 %72, label %73, label %81

73:                                               ; preds = %70
  %74 = load ptr, ptr %5, align 8
  %75 = getelementptr inbounds nuw %struct.node_record, ptr %74, i32 0, i32 37
  %76 = load ptr, ptr %75, align 8
  %77 = load ptr, ptr %5, align 8
  %78 = getelementptr inbounds nuw %struct.node_record, ptr %77, i32 0, i32 21
  %79 = load ptr, ptr %78, align 8
  %80 = call i32 @update_node_avail_features(ptr noundef %76, ptr noundef %79, i32 noundef 1)
  br label %81

81:                                               ; preds = %73, %70
  br label %82

82:                                               ; preds = %81, %48
  %83 = load ptr, ptr %5, align 8
  %84 = getelementptr inbounds nuw %struct.node_record, ptr %83, i32 0, i32 19
  %85 = load ptr, ptr %84, align 8
  %86 = icmp ne ptr %85, null
  br i1 %86, label %87, label %129

87:                                               ; preds = %82
  %88 = load ptr, ptr %5, align 8
  %89 = getelementptr inbounds nuw %struct.node_record, ptr %88, i32 0, i32 19
  %90 = load ptr, ptr %89, align 8
  %91 = getelementptr inbounds i8, ptr %90, i64 0
  %92 = load i8, ptr %91, align 1
  %93 = sext i8 %92 to i32
  %94 = icmp ne i32 %93, 0
  br i1 %94, label %95, label %129

95:                                               ; preds = %87
  %96 = call zeroext i1 @extra_constraints_enabled()
  br i1 %96, label %97, label %129

97:                                               ; preds = %95
  call void @llvm.lifetime.start.p0(i64 8, ptr %6) #10
  store ptr null, ptr %6, align 8
  %98 = load ptr, ptr %5, align 8
  %99 = getelementptr inbounds nuw %struct.node_record, ptr %98, i32 0, i32 19
  %100 = load ptr, ptr %99, align 8
  %101 = load ptr, ptr %5, align 8
  %102 = getelementptr inbounds nuw %struct.node_record, ptr %101, i32 0, i32 19
  %103 = load ptr, ptr %102, align 8
  %104 = call i64 @strlen(ptr noundef %103) #11
  %105 = call i32 @serialize_g_string_to_data(ptr noundef %6, ptr noundef %100, i64 noundef %104, ptr noundef @.str.29)
  %106 = icmp ne i32 %105, 0
  br i1 %106, label %107, label %124

107:                                              ; preds = %97
  br label %108

108:                                              ; preds = %107
  br label %109

109:                                              ; preds = %108
  %110 = call i32 @get_log_level()
  %111 = icmp sge i32 %110, 3
  br i1 %111, label %112, label %119

112:                                              ; preds = %109
  %113 = load ptr, ptr %5, align 8
  %114 = getelementptr inbounds nuw %struct.node_record, ptr %113, i32 0, i32 19
  %115 = load ptr, ptr %114, align 8
  %116 = load ptr, ptr %5, align 8
  %117 = getelementptr inbounds nuw %struct.node_record, ptr %116, i32 0, i32 37
  %118 = load ptr, ptr %117, align 8
  call void (i32, ptr, ...) @log_var(i32 noundef 3, ptr noundef @.str.30, ptr noundef %115, ptr noundef %118)
  br label %119

119:                                              ; preds = %112, %109
  br label %120

120:                                              ; preds = %119
  br label %121

121:                                              ; preds = %120
  br label %122

122:                                              ; preds = %121
  br label %123

123:                                              ; preds = %122
  br label %128

124:                                              ; preds = %97
  %125 = load ptr, ptr %6, align 8
  %126 = load ptr, ptr %5, align 8
  %127 = getelementptr inbounds nuw %struct.node_record, ptr %126, i32 0, i32 20
  store ptr %125, ptr %127, align 8
  br label %128

128:                                              ; preds = %124, %123
  call void @llvm.lifetime.end.p0(i64 8, ptr %6) #10
  br label %129

129:                                              ; preds = %128, %95, %87, %82
  %130 = load ptr, ptr %5, align 8
  %131 = getelementptr inbounds nuw %struct.node_record, ptr %130, i32 0, i32 37
  %132 = load ptr, ptr %131, align 8
  %133 = load ptr, ptr %5, align 8
  %134 = getelementptr inbounds nuw %struct.node_record, ptr %133, i32 0, i32 9
  %135 = load ptr, ptr %134, align 8
  %136 = getelementptr inbounds nuw %struct.config_record_t, ptr %135, i32 0, i32 7
  %137 = load ptr, ptr %136, align 8
  %138 = load ptr, ptr %5, align 8
  %139 = getelementptr inbounds nuw %struct.node_record, ptr %138, i32 0, i32 27
  %140 = load ptr, ptr %5, align 8
  %141 = getelementptr inbounds nuw %struct.node_record, ptr %140, i32 0, i32 28
  %142 = load i32, ptr getelementptr inbounds nuw (%struct.slurm_conf_t, ptr @slurm_conf, i32 0, i32 34), align 4
  %143 = zext i32 %142 to i64
  %144 = and i64 %143, 1
  %145 = icmp ne i64 %144, 0
  %146 = load ptr, ptr %5, align 8
  %147 = getelementptr inbounds nuw %struct.node_record, ptr %146, i32 0, i32 11
  %148 = load i16, ptr %147, align 2
  %149 = zext i16 %148 to i32
  %150 = load ptr, ptr %5, align 8
  %151 = getelementptr inbounds nuw %struct.node_record, ptr %150, i32 0, i32 75
  %152 = load i16, ptr %151, align 2
  %153 = zext i16 %152 to i32
  %154 = call i32 @gres_node_reconfig(ptr noundef %132, ptr noundef %137, ptr noundef %139, ptr noundef %141, i1 noundef zeroext %145, i32 noundef %149, i32 noundef %153)
  %155 = load ptr, ptr %5, align 8
  %156 = getelementptr inbounds nuw %struct.node_record, ptr %155, i32 0, i32 28
  %157 = load ptr, ptr %156, align 8
  %158 = load ptr, ptr %5, align 8
  %159 = getelementptr inbounds nuw %struct.node_record, ptr %158, i32 0, i32 37
  %160 = load ptr, ptr %159, align 8
  call void @gres_node_state_log(ptr noundef %157, ptr noundef %160)
  br label %161

161:                                              ; preds = %129
  %162 = load i32, ptr %3, align 4
  %163 = add nsw i32 %162, 1
  store i32 %163, ptr %3, align 4
  br label %8, !llvm.loop !26

164:                                              ; preds = %8
  %165 = call i32 @update_node_avail_features(ptr noundef null, ptr noundef null, i32 noundef 2)
  call void @llvm.lifetime.end.p0(i64 8, ptr %5) #10
  call void @llvm.lifetime.end.p0(i64 4, ptr %4) #10
  call void @llvm.lifetime.end.p0(i64 4, ptr %3) #10
  ret void
}