; Function Attrs: nounwind uwtable
define dso_local void @restore_node_features(i32 noundef %0) local_unnamed_addr #0 {
  %2 = alloca ptr, align 8
  %3 = alloca i32, align 4
  %4 = alloca ptr, align 8
  call void @llvm.lifetime.start.p0(i64 4, ptr nonnull %3) #15
  %5 = tail call i32 @node_features_g_count() #15
  store i32 0, ptr %3, align 4
  %6 = call ptr @next_node(ptr noundef nonnull %3) #15
  %.not39 = icmp eq ptr %6, null
  br i1 %.not39, label %._crit_edge, label %.lr.ph

.lr.ph:                                           ; preds = %1
  %7 = icmp eq i32 %0, 2
  %8 = icmp eq i32 %5, 0
  br label %9

9:                                                ; preds = %.lr.ph, %70
  %10 = phi ptr [ %6, %.lr.ph ], [ %92, %70 ]
  %11 = getelementptr inbounds nuw i8, ptr %10, i64 532
  %12 = load i32, ptr %11, align 4
  %13 = getelementptr inbounds nuw i8, ptr %10, i64 72
  %14 = load ptr, ptr %13, align 8
  %15 = getelementptr inbounds nuw i8, ptr %14, i64 120
  %16 = load i32, ptr %15, align 8
  %.not33 = icmp eq i32 %12, %16
  br i1 %.not33, label %29, label %17

17:                                               ; preds = %9
  %18 = getelementptr inbounds nuw i8, ptr %10, i64 272
  %19 = load ptr, ptr %18, align 8
  %20 = call i32 (ptr, ...) @error(ptr noundef nonnull @.str.49, ptr noundef %19, i32 noundef %12) #15
  br i1 %7, label %21, label %25

21:                                               ; preds = %17
  %22 = load ptr, ptr %18, align 8
  %23 = load i32, ptr %11, align 4
  %24 = call fastcc i32 @_update_node_weight(ptr noundef %22, i32 noundef %23)
  %.pre = load ptr, ptr %13, align 8
  br label %29

25:                                               ; preds = %17
  %26 = load ptr, ptr %13, align 8
  %27 = getelementptr inbounds nuw i8, ptr %26, i64 120
  %28 = load i32, ptr %27, align 8
  store i32 %28, ptr %11, align 4
  br label %29

29:                                               ; preds = %21, %25, %9
  %30 = phi ptr [ %.pre, %21 ], [ %26, %25 ], [ %14, %9 ]
  %31 = getelementptr inbounds nuw i8, ptr %30, i64 32
  %32 = load ptr, ptr %31, align 8
  %33 = getelementptr inbounds nuw i8, ptr %10, i64 144
  %34 = load ptr, ptr %33, align 8
  %35 = call i32 @xstrcmp(ptr noundef %32, ptr noundef %34) #15
  %.not34 = icmp eq i32 %35, 0
  br i1 %.not34, label %48, label %36

36:                                               ; preds = %29
  br i1 %8, label %37, label %42

37:                                               ; preds = %36
  %38 = getelementptr inbounds nuw i8, ptr %10, i64 272
  %39 = load ptr, ptr %38, align 8
  %40 = load ptr, ptr %33, align 8
  %41 = call i32 (ptr, ...) @error(ptr noundef nonnull @.str.50, ptr noundef %39, ptr noundef %40) #15
  br label %42

42:                                               ; preds = %37, %36
  br i1 %7, label %43, label %48

43:                                               ; preds = %42
  %44 = getelementptr inbounds nuw i8, ptr %10, i64 272
  %45 = load ptr, ptr %44, align 8
  %46 = load ptr, ptr %33, align 8
  %47 = call i32 @update_node_avail_features(ptr noundef %45, ptr noundef %46, i32 noundef 1)
  br label %48

48:                                               ; preds = %42, %43, %29
  %49 = getelementptr inbounds nuw i8, ptr %10, i64 128
  %50 = load ptr, ptr %49, align 8
  %.not35 = icmp eq ptr %50, null
  br i1 %.not35, label %70, label %51

51:                                               ; preds = %48
  %52 = load i8, ptr %50, align 1
  %.not36 = icmp eq i8 %52, 0
  br i1 %.not36, label %70, label %53

53:                                               ; preds = %51
  %54 = call zeroext i1 @extra_constraints_enabled() #15
  br i1 %54, label %55, label %70

55:                                               ; preds = %53
  call void @llvm.lifetime.start.p0(i64 8, ptr nonnull %4) #15
  store ptr null, ptr %4, align 8
  %56 = load ptr, ptr %49, align 8
  %57 = call i64 @strlen(ptr noundef nonnull dereferenceable(1) %56) #16
  %58 = call i32 @serialize_g_string_to_data(ptr noundef nonnull %4, ptr noundef nonnull %56, i64 noundef %57, ptr noundef nonnull @.str.29) #15
  %.not37 = icmp eq i32 %58, 0
  br i1 %.not37, label %66, label %59

59:                                               ; preds = %55
  %60 = call i32 @get_log_level() #15
  %61 = icmp sgt i32 %60, 2
  br i1 %61, label %62, label %69

62:                                               ; preds = %59
  %63 = load ptr, ptr %49, align 8
  %64 = getelementptr inbounds nuw i8, ptr %10, i64 272
  %65 = load ptr, ptr %64, align 8
  call void (i32, ptr, ...) @log_var(i32 noundef 3, ptr noundef nonnull @.str.30, ptr noundef %63, ptr noundef %65) #15
  br label %69

66:                                               ; preds = %55
  %67 = load ptr, ptr %4, align 8
  %68 = getelementptr inbounds nuw i8, ptr %10, i64 136
  store ptr %67, ptr %68, align 8
  br label %69

69:                                               ; preds = %59, %62, %66
  call void @llvm.lifetime.end.p0(i64 8, ptr nonnull %4) #15
  br label %70

70:                                               ; preds = %69, %53, %51, %48
  %71 = getelementptr inbounds nuw i8, ptr %10, i64 272
  %72 = load ptr, ptr %71, align 8
  %73 = load ptr, ptr %13, align 8
  %74 = getelementptr inbounds nuw i8, ptr %73, i64 40
  %75 = load ptr, ptr %74, align 8
  %76 = getelementptr inbounds nuw i8, ptr %10, i64 192
  %77 = getelementptr inbounds nuw i8, ptr %10, i64 200
  %78 = load i32, ptr getelementptr inbounds nuw (i8, ptr @slurm_conf, i64 268), align 4
  %79 = and i32 %78, 1
  %80 = icmp ne i32 %79, 0
  %81 = getelementptr inbounds nuw i8, ptr %10, i64 82
  %82 = load i16, ptr %81, align 2
  %83 = zext i16 %82 to i32
  %84 = getelementptr inbounds nuw i8, ptr %10, i64 514
  %85 = load i16, ptr %84, align 2
  %86 = zext i16 %85 to i32
  %87 = call i32 @gres_node_reconfig(ptr noundef %72, ptr noundef %75, ptr noundef nonnull %76, ptr noundef nonnull %77, i1 noundef zeroext %80, i32 noundef %83, i32 noundef %86) #15
  %88 = load ptr, ptr %77, align 8
  %89 = load ptr, ptr %71, align 8
  call void @gres_node_state_log(ptr noundef %88, ptr noundef %89) #15
  %90 = load i32, ptr %3, align 4
  %91 = add nsw i32 %90, 1
  store i32 %91, ptr %3, align 4
  %92 = call ptr @next_node(ptr noundef nonnull %3) #15
  %.not = icmp eq ptr %92, null
  br i1 %.not, label %._crit_edge, label %9, !llvm.loop !26

._crit_edge:                                      ; preds = %70, %1
  %93 = load ptr, ptr @update_node_avail_features.last_avail_features, align 8
  %.not.i = icmp eq ptr %93, null
  br i1 %.not.i, label %update_node_avail_features.exit, label %94

94:                                               ; preds = %._crit_edge
  %95 = load ptr, ptr @update_node_avail_features.last_node_bitmap, align 8
  %.not25.i = icmp eq ptr %95, null
  br i1 %.not25.i, label %update_node_avail_features.exit, label %96

96:                                               ; preds = %94
  call void @llvm.lifetime.start.p0(i64 8, ptr nonnull %2) #15
  %97 = call ptr @bitmap2node_name(ptr noundef nonnull %95) #15
  store ptr %97, ptr %2, align 8
  %98 = call i32 @get_log_level() #15
  %99 = icmp sgt i32 %98, 5
  br i1 %99, label %100, label %102

100:                                              ; preds = %96
  %101 = load ptr, ptr @update_node_avail_features.last_avail_features, align 8
  call void (i32, ptr, ...) @log_var(i32 noundef 6, ptr noundef nonnull @.str.149, ptr noundef nonnull @__func__._update_node_features_post, ptr noundef %97, ptr noundef nonnull @.str.53, ptr noundef %101) #15
  br label %102

102:                                              ; preds = %100, %96
  call void @slurm_xfree(ptr noundef nonnull %2) #15
  call void @slurm_xfree(ptr noundef nonnull @update_node_avail_features.last_avail_features) #15
  %103 = load ptr, ptr @update_node_avail_features.last_node_bitmap, align 8
  %.not27.i = icmp eq ptr %103, null
  br i1 %.not27.i, label %105, label %104

104:                                              ; preds = %102
  call void @slurm_bit_free(ptr noundef nonnull @update_node_avail_features.last_node_bitmap) #15
  br label %105

105:                                              ; preds = %104, %102
  store ptr null, ptr @update_node_avail_features.last_node_bitmap, align 8
  call void @llvm.lifetime.end.p0(i64 8, ptr nonnull %2) #15
  br label %update_node_avail_features.exit

update_node_avail_features.exit:                  ; preds = %105, %94, %._crit_edge
  call void @llvm.lifetime.end.p0(i64 4, ptr nonnull %3) #15
  ret void
}